target datalayout = "e-m:e-p270:32:32-p271:32:32-p272:64:64-i64:64-i128:128-f80:128-n8:16:32:64-S128"
target triple = "x86_64-unknown-linux-gnu"

%"class.QuantLib::Date" = type { i64 }
%"class.boost::detail::shared_count" = type { ptr }
%"class.std::set" = type { %"class.std::_Rb_tree" }
%"class.std::_Rb_tree" = type { %"struct.std::_Rb_tree<boost::shared_ptr<QuantLib::Observable>, boost::shared_ptr<QuantLib::Observable>, std::_Identity<boost::shared_ptr<QuantLib::Observable>>, std::less<boost::shared_ptr<QuantLib::Observable>>>::_Rb_tree_impl" }
%"struct.std::_Rb_tree<boost::shared_ptr<QuantLib::Observable>, boost::shared_ptr<QuantLib::Observable>, std::_Identity<boost::shared_ptr<QuantLib::Observable>>, std::less<boost::shared_ptr<QuantLib::Observable>>>::_Rb_tree_impl" = type { [8 x i8], %"struct.std::_Rb_tree_header" }
%"struct.std::_Rb_tree_header" = type { %"struct.std::_Rb_tree_node_base", i64 }
%"struct.std::_Rb_tree_node_base" = type { i32, ptr, ptr, ptr }
%"class.QuantLib::Null" = type { i8 }
%"class.QuantLib::TermStructure" = type { %"class.QuantLib::Extrapolator.base", i8, i8, %"class.QuantLib::Calendar", %"class.QuantLib::Date", i32, %"class.QuantLib::DayCounter", %"class.QuantLib::Observer", %"class.QuantLib::Observable" }
%"class.QuantLib::Extrapolator.base" = type <{ ptr, i8 }>
%"class.QuantLib::Calendar" = type { %"class.boost::shared_ptr.7" }
%"class.boost::shared_ptr.7" = type { ptr, %"class.boost::detail::shared_count" }
%"class.QuantLib::DayCounter" = type { %"class.boost::shared_ptr.6" }
%"class.boost::shared_ptr.6" = type { ptr, %"class.boost::detail::shared_count" }
%"class.QuantLib::Observer" = type { ptr, %"class.std::set" }
%"class.QuantLib::Observable" = type { ptr, %"class.std::set.0" }
%"class.std::set.0" = type { %"class.std::_Rb_tree.1" }
%"class.std::_Rb_tree.1" = type { %"struct.std::_Rb_tree<QuantLib::Observer *, QuantLib::Observer *, std::_Identity<QuantLib::Observer *>, std::less<QuantLib::Observer *>>::_Rb_tree_impl" }
%"struct.std::_Rb_tree<QuantLib::Observer *, QuantLib::Observer *, std::_Identity<QuantLib::Observer *>, std::less<QuantLib::Observer *>>::_Rb_tree_impl" = type { [8 x i8], %"struct.std::_Rb_tree_header" }
%"class.QuantLib::Extrapolator" = type <{ ptr, i8, [7 x i8] }>
%"class.boost::detail::sp_counted_base" = type { ptr, i32, i32 }

@_ZTVN8QuantLib12ExtrapolatorE = linkonce_odr unnamed_addr constant { [4 x ptr] } { [4 x ptr] [ptr null, ptr @_ZTIN8QuantLib12ExtrapolatorE, ptr @_ZN8QuantLib12ExtrapolatorD2Ev, ptr @_ZN8QuantLib12ExtrapolatorD0Ev] }, comdat, align 8

; Function Attrs: mustprogress uwtable
define linkonce_odr void @_ZN5boost6detail15sp_counted_base12weak_releaseEv(ptr noundef nonnull align 8 dereferenceable(16) %this) #2 comdat align 2 {
entry:
  %this.addr = alloca ptr, align 8
  store ptr %this, ptr %this.addr, align 8, !tbaa !3
  %this1 = load ptr, ptr %this.addr, align 8
  %weak_count_ = getelementptr inbounds nuw %"class.boost::detail::sp_counted_base", ptr %this1, i32 0, i32 2
  %call = call noundef i32 @_ZN5boost6detail16atomic_decrementEPj(ptr noundef %weak_count_)
  %cmp = icmp eq i32 %call, 1
  br i1 %cmp, label %if.then, label %if.end

if.then:                                          ; preds = %entry
  %vtable = load ptr, ptr %this1, align 8, !tbaa !10
  %vfn = getelementptr inbounds ptr, ptr %vtable, i64 3
  %0 = load ptr, ptr %vfn, align 8
  call void %0(ptr noundef nonnull align 8 dereferenceable(16) %this1)
  br label %if.end

if.end:                                           ; preds = %if.then, %entry
  ret void
}

; Function Attrs: inlinehint mustprogress nounwind uwtable
define linkonce_odr noundef i32 @_ZN5boost6detail16atomic_decrementEPj(ptr noundef %pw) #6 comdat {
entry:
  %pw.addr = alloca ptr, align 8
  %.atomictmp = alloca i32, align 4
  %atomic-temp = alloca i32, align 4
  store ptr %pw, ptr %pw.addr, align 8, !tbaa !3
  %0 = load ptr, ptr %pw.addr, align 8, !tbaa !3
  store i32 1, ptr %.atomictmp, align 4, !tbaa !28
  %1 = load i32, ptr %.atomictmp, align 4
  %2 = atomicrmw sub ptr %0, i32 %1 acq_rel, align 4
  store i32 %2, ptr %atomic-temp, align 4
  %3 = load i32, ptr %atomic-temp, align 4, !tbaa !28
  ret i32 %3
}

; Function Attrs: noinline noreturn nounwind uwtable
define linkonce_odr hidden void @__clang_call_terminate(ptr noundef %0) #3 comdat {
  %2 = call ptr @__cxa_begin_catch(ptr %0) #9
  call void @_ZSt9terminatev() #18
  unreachable
}

; Function Attrs: mustprogress uwtable
define linkonce_odr void @_ZN5boost6detail15sp_counted_base7releaseEv(ptr noundef nonnull align 8 dereferenceable(16) %this) #2 comdat align 2 {
entry:
  %this.addr = alloca ptr, align 8
  store ptr %this, ptr %this.addr, align 8, !tbaa !3
  %this1 = load ptr, ptr %this.addr, align 8
  %use_count_ = getelementptr inbounds nuw %"class.boost::detail::sp_counted_base", ptr %this1, i32 0, i32 1
  %call = call noundef i32 @_ZN5boost6detail16atomic_decrementEPj(ptr noundef %use_count_)
  %cmp = icmp eq i32 %call, 1
  br i1 %cmp, label %if.then, label %if.end

if.then:                                          ; preds = %entry
  %vtable = load ptr, ptr %this1, align 8, !tbaa !10
  %vfn = getelementptr inbounds ptr, ptr %vtable, i64 2
  %0 = load ptr, ptr %vfn, align 8
  call void %0(ptr noundef nonnull align 8 dereferenceable(16) %this1)
  call void @_ZN5boost6detail15sp_counted_base12weak_releaseEv(ptr noundef nonnull align 8 dereferenceable(16) %this1)
  br label %if.end

if.end:                                           ; preds = %if.then, %entry
  ret void
}

; Function Attrs: mustprogress nounwind uwtable
define linkonce_odr void @_ZN5boost6detail12shared_countD2Ev(ptr noundef nonnull align 8 dereferenceable(8) %this) unnamed_addr #1 comdat align 2 personality ptr @__gxx_personality_v0 {
entry:
  %this.addr = alloca ptr, align 8
  store ptr %this, ptr %this.addr, align 8, !tbaa !3
  %this1 = load ptr, ptr %this.addr, align 8
  %pi_ = getelementptr inbounds nuw %"class.boost::detail::shared_count", ptr %this1, i32 0, i32 0
  %0 = load ptr, ptr %pi_, align 8, !tbaa !46
  %cmp = icmp ne ptr %0, null
  br i1 %cmp, label %if.then, label %if.end

if.then:                                          ; preds = %entry
  %pi_2 = getelementptr inbounds nuw %"class.boost::detail::shared_count", ptr %this1, i32 0, i32 0
  %1 = load ptr, ptr %pi_2, align 8, !tbaa !46
  invoke void @_ZN5boost6detail15sp_counted_base7releaseEv(ptr noundef nonnull align 8 dereferenceable(16) %1)
          to label %invoke.cont unwind label %terminate.lpad

invoke.cont:                                      ; preds = %if.then
  br label %if.end

if.end:                                           ; preds = %invoke.cont, %entry
  ret void

terminate.lpad:                                   ; preds = %if.then
  %2 = landingpad { ptr, i32 }
          catch ptr null
  %3 = extractvalue { ptr, i32 } %2, 0
  call void @__clang_call_terminate(ptr %3) #18
  unreachable
}

; Function Attrs: mustprogress nounwind uwtable
define linkonce_odr noundef i32 @_ZNSt14numeric_limitsIiE3maxEv() #1 comdat align 2 {
entry:
  ret i32 2147483647
}

; Function Attrs: mustprogress nounwind uwtable
define linkonce_odr void @_ZN5boost6detail12shared_countC2EOS1_(ptr noundef nonnull align 8 dereferenceable(8) %this, ptr noundef nonnull align 8 dereferenceable(8) %r) unnamed_addr #1 comdat align 2 {
entry:
  %this.addr = alloca ptr, align 8
  %r.addr = alloca ptr, align 8
  store ptr %this, ptr %this.addr, align 8, !tbaa !3
  store ptr %r, ptr %r.addr, align 8, !tbaa !3
  %this1 = load ptr, ptr %this.addr, align 8
  %pi_ = getelementptr inbounds nuw %"class.boost::detail::shared_count", ptr %this1, i32 0, i32 0
  %0 = load ptr, ptr %r.addr, align 8, !tbaa !3
  %pi_2 = getelementptr inbounds nuw %"class.boost::detail::shared_count", ptr %0, i32 0, i32 0
  %1 = load ptr, ptr %pi_2, align 8, !tbaa !46
  store ptr %1, ptr %pi_, align 8, !tbaa !46
  %2 = load ptr, ptr %r.addr, align 8, !tbaa !3
  %pi_3 = getelementptr inbounds nuw %"class.boost::detail::shared_count", ptr %2, i32 0, i32 0
  store ptr null, ptr %pi_3, align 8, !tbaa !46
  ret void
}

; Function Attrs: inlinehint mustprogress nounwind uwtable
define linkonce_odr void @_ZN5boost10shared_ptrIN8QuantLib8Calendar4ImplEED2Ev(ptr noundef nonnull align 8 dereferenceable(16) %this) unnamed_addr #6 comdat align 2 {
entry:
  %this.addr = alloca ptr, align 8
  store ptr %this, ptr %this.addr, align 8, !tbaa !3
  %this1 = load ptr, ptr %this.addr, align 8
  %pn = getelementptr inbounds nuw %"class.boost::shared_ptr.7", ptr %this1, i32 0, i32 1
  call void @_ZN5boost6detail12shared_countD2Ev(ptr noundef nonnull align 8 dereferenceable(8) %pn) #9
  ret void
}

; Function Attrs: mustprogress nounwind uwtable
define linkonce_odr void @_ZN5boost10shared_ptrIN8QuantLib10DayCounter4ImplEEC2EOS4_(ptr noundef nonnull align 8 dereferenceable(16) %this, ptr noundef nonnull align 8 dereferenceable(16) %r) unnamed_addr #1 comdat align 2 {
entry:
  %this.addr = alloca ptr, align 8
  %r.addr = alloca ptr, align 8
  store ptr %this, ptr %this.addr, align 8, !tbaa !3
  store ptr %r, ptr %r.addr, align 8, !tbaa !3
  %this1 = load ptr, ptr %this.addr, align 8
  %px = getelementptr inbounds nuw %"class.boost::shared_ptr.6", ptr %this1, i32 0, i32 0
  %0 = load ptr, ptr %r.addr, align 8, !tbaa !3
  %px2 = getelementptr inbounds nuw %"class.boost::shared_ptr.6", ptr %0, i32 0, i32 0
  %1 = load ptr, ptr %px2, align 8, !tbaa !48
  store ptr %1, ptr %px, align 8, !tbaa !48
  %pn = getelementptr inbounds nuw %"class.boost::shared_ptr.6", ptr %this1, i32 0, i32 1
  %2 = load ptr, ptr %r.addr, align 8, !tbaa !3
  %pn3 = getelementptr inbounds nuw %"class.boost::shared_ptr.6", ptr %2, i32 0, i32 1
  call void @_ZN5boost6detail12shared_countC2EOS1_(ptr noundef nonnull align 8 dereferenceable(8) %pn, ptr noundef nonnull align 8 dereferenceable(8) %pn3) #9
  %3 = load ptr, ptr %r.addr, align 8, !tbaa !3
  %px4 = getelementptr inbounds nuw %"class.boost::shared_ptr.6", ptr %3, i32 0, i32 0
  store ptr null, ptr %px4, align 8, !tbaa !48
  ret void
}

; Function Attrs: mustprogress nounwind uwtable
define linkonce_odr noundef i32 @_ZN8QuantLib6detail17FloatingPointNullILb0EE9nullValueEv() #1 comdat align 2 {
entry:
  %call = call noundef i32 @_ZNSt14numeric_limitsIiE3maxEv() #9
  ret i32 %call
}

; Function Attrs: mustprogress nounwind uwtable
define linkonce_odr void @_ZN5boost10shared_ptrIN8QuantLib8Calendar4ImplEEC2EOS4_(ptr noundef nonnull align 8 dereferenceable(16) %this, ptr noundef nonnull align 8 dereferenceable(16) %r) unnamed_addr #1 comdat align 2 {
entry:
  %this.addr = alloca ptr, align 8
  %r.addr = alloca ptr, align 8
  store ptr %this, ptr %this.addr, align 8, !tbaa !3
  store ptr %r, ptr %r.addr, align 8, !tbaa !3
  %this1 = load ptr, ptr %this.addr, align 8
  %px = getelementptr inbounds nuw %"class.boost::shared_ptr.7", ptr %this1, i32 0, i32 0
  %0 = load ptr, ptr %r.addr, align 8, !tbaa !3
  %px2 = getelementptr inbounds nuw %"class.boost::shared_ptr.7", ptr %0, i32 0, i32 0
  %1 = load ptr, ptr %px2, align 8, !tbaa !47
  store ptr %1, ptr %px, align 8, !tbaa !47
  %pn = getelementptr inbounds nuw %"class.boost::shared_ptr.7", ptr %this1, i32 0, i32 1
  %2 = load ptr, ptr %r.addr, align 8, !tbaa !3
  %pn3 = getelementptr inbounds nuw %"class.boost::shared_ptr.7", ptr %2, i32 0, i32 1
  call void @_ZN5boost6detail12shared_countC2EOS1_(ptr noundef nonnull align 8 dereferenceable(8) %pn, ptr noundef nonnull align 8 dereferenceable(8) %pn3) #9
  %3 = load ptr, ptr %r.addr, align 8, !tbaa !3
  %px4 = getelementptr inbounds nuw %"class.boost::shared_ptr.7", ptr %3, i32 0, i32 0
  store ptr null, ptr %px4, align 8, !tbaa !47
  ret void
}

; Function Attrs: mustprogress nounwind uwtable
define linkonce_odr void @_ZN8QuantLib12ExtrapolatorD2Ev(ptr noundef nonnull align 8 dereferenceable(9) %this) unnamed_addr #1 comdat align 2 {
entry:
  %this.addr = alloca ptr, align 8
  store ptr %this, ptr %this.addr, align 8, !tbaa !3
  ret void
}

; Function Attrs: inlinehint mustprogress nounwind uwtable
define linkonce_odr void @_ZN8QuantLib8CalendarD2Ev(ptr noundef nonnull align 8 dereferenceable(16) %this) unnamed_addr #6 comdat align 2 {
entry:
  %this.addr = alloca ptr, align 8
  store ptr %this, ptr %this.addr, align 8, !tbaa !3
  %this1 = load ptr, ptr %this.addr, align 8
  %impl_ = getelementptr inbounds nuw %"class.QuantLib::Calendar", ptr %this1, i32 0, i32 0
  call void @_ZN5boost10shared_ptrIN8QuantLib8Calendar4ImplEED2Ev(ptr noundef nonnull align 8 dereferenceable(16) %impl_) #9
  ret void
}

; Function Attrs: inlinehint mustprogress nounwind uwtable
define linkonce_odr void @_ZN8QuantLib10DayCounterC2EOS0_(ptr noundef nonnull align 8 dereferenceable(16) %this, ptr noundef nonnull align 8 dereferenceable(16) %0) unnamed_addr #6 comdat align 2 {
entry:
  %this.addr = alloca ptr, align 8
  %.addr = alloca ptr, align 8
  store ptr %this, ptr %this.addr, align 8, !tbaa !3
  store ptr %0, ptr %.addr, align 8, !tbaa !3
  %this1 = load ptr, ptr %this.addr, align 8
  %impl_ = getelementptr inbounds nuw %"class.QuantLib::DayCounter", ptr %this1, i32 0, i32 0
  %1 = load ptr, ptr %.addr, align 8, !tbaa !3
  %impl_2 = getelementptr inbounds nuw %"class.QuantLib::DayCounter", ptr %1, i32 0, i32 0
  call void @_ZN5boost10shared_ptrIN8QuantLib10DayCounter4ImplEEC2EOS4_(ptr noundef nonnull align 8 dereferenceable(16) %impl_, ptr noundef nonnull align 8 dereferenceable(16) %impl_2) #9
  ret void
}

; Function Attrs: mustprogress uwtable
define linkonce_odr noundef i32 @_ZNK8QuantLib4NullIjEcvjEv(ptr noundef nonnull align 1 dereferenceable(1) %this) #2 comdat align 2 {
entry:
  %this.addr = alloca ptr, align 8
  store ptr %this, ptr %this.addr, align 8, !tbaa !3
  %call = call noundef i32 @_ZN8QuantLib6detail17FloatingPointNullILb0EE9nullValueEv()
  ret i32 %call
}

; Function Attrs: inlinehint mustprogress nounwind uwtable
define linkonce_odr void @_ZN8QuantLib8CalendarC2EOS0_(ptr noundef nonnull align 8 dereferenceable(16) %this, ptr noundef nonnull align 8 dereferenceable(16) %0) unnamed_addr #6 comdat align 2 {
entry:
  %this.addr = alloca ptr, align 8
  %.addr = alloca ptr, align 8
  store ptr %this, ptr %this.addr, align 8, !tbaa !3
  store ptr %0, ptr %.addr, align 8, !tbaa !3
  %this1 = load ptr, ptr %this.addr, align 8
  %impl_ = getelementptr inbounds nuw %"class.QuantLib::Calendar", ptr %this1, i32 0, i32 0
  %1 = load ptr, ptr %.addr, align 8, !tbaa !3
  %impl_2 = getelementptr inbounds nuw %"class.QuantLib::Calendar", ptr %1, i32 0, i32 0
  call void @_ZN5boost10shared_ptrIN8QuantLib8Calendar4ImplEEC2EOS4_(ptr noundef nonnull align 8 dereferenceable(16) %impl_, ptr noundef nonnull align 8 dereferenceable(16) %impl_2) #9
  ret void
}

; Function Attrs: mustprogress nounwind uwtable
define linkonce_odr void @_ZN8QuantLib12ExtrapolatorC2Ev(ptr noundef nonnull align 8 dereferenceable(9) %this) unnamed_addr #1 comdat align 2 {
entry:
  %this.addr = alloca ptr, align 8
  store ptr %this, ptr %this.addr, align 8, !tbaa !3
  %this1 = load ptr, ptr %this.addr, align 8
  store ptr getelementptr inbounds inrange(-16, 16) ({ [4 x ptr] }, ptr @_ZTVN8QuantLib12ExtrapolatorE, i32 0, i32 0, i32 2), ptr %this1, align 8, !tbaa !10
  %extrapolate_ = getelementptr inbounds nuw %"class.QuantLib::Extrapolator", ptr %this1, i32 0, i32 1
  store i8 0, ptr %extrapolate_, align 8, !tbaa !25
  ret void
}

; Function Attrs: mustprogress uwtable
define void @_ZN8QuantLib13TermStructureC2ERKNS_4DateENS_8CalendarENS_10DayCounterE(ptr noundef nonnull align 8 dereferenceable(64) %this, ptr noundef %vtt, ptr noundef nonnull align 8 dereferenceable(8) %referenceDate, ptr noundef %cal, ptr noundef %dc) unnamed_addr #2 align 2 personality ptr @__gxx_personality_v0 {
entry:
  %this.addr = alloca ptr, align 8
  %vtt.addr = alloca ptr, align 8
  %referenceDate.addr = alloca ptr, align 8
  %cal.indirect_addr = alloca ptr, align 8
  %dc.indirect_addr = alloca ptr, align 8
  %ref.tmp = alloca %"class.QuantLib::Null", align 1
  %exn.slot = alloca ptr, align 8
  %ehselector.slot = alloca i32, align 4
  store ptr %this, ptr %this.addr, align 8, !tbaa !3
  store ptr %vtt, ptr %vtt.addr, align 8, !tbaa !3
  store ptr %referenceDate, ptr %referenceDate.addr, align 8, !tbaa !3
  store ptr %cal, ptr %cal.indirect_addr, align 8, !tbaa !3
  store ptr %dc, ptr %dc.indirect_addr, align 8, !tbaa !3
  %this1 = load ptr, ptr %this.addr, align 8
  %vtt2 = load ptr, ptr %vtt.addr, align 8
  call void @_ZN8QuantLib12ExtrapolatorC2Ev(ptr noundef nonnull align 8 dereferenceable(9) %this1) #9
  %0 = load ptr, ptr %vtt2, align 8
  store ptr %0, ptr %this1, align 8, !tbaa !10
  %1 = getelementptr inbounds ptr, ptr %vtt2, i64 1
  %2 = load ptr, ptr %1, align 8
  %vtable = load ptr, ptr %this1, align 8, !tbaa !10
  %vbase.offset.ptr = getelementptr i8, ptr %vtable, i64 -24
  %vbase.offset = load i64, ptr %vbase.offset.ptr, align 8
  %add.ptr = getelementptr inbounds i8, ptr %this1, i64 %vbase.offset
  store ptr %2, ptr %add.ptr, align 8, !tbaa !10
  %3 = getelementptr inbounds ptr, ptr %vtt2, i64 2
  %4 = load ptr, ptr %3, align 8
  %vtable3 = load ptr, ptr %this1, align 8, !tbaa !10
  %vbase.offset.ptr4 = getelementptr i8, ptr %vtable3, i64 -32
  %vbase.offset5 = load i64, ptr %vbase.offset.ptr4, align 8
  %add.ptr6 = getelementptr inbounds i8, ptr %this1, i64 %vbase.offset5
  store ptr %4, ptr %add.ptr6, align 8, !tbaa !10
  %moving_ = getelementptr inbounds nuw %"class.QuantLib::TermStructure", ptr %this1, i32 0, i32 1
  store i8 0, ptr %moving_, align 1, !tbaa !12
  %updated_ = getelementptr inbounds nuw %"class.QuantLib::TermStructure", ptr %this1, i32 0, i32 2
  store i8 1, ptr %updated_, align 2, !tbaa !23
  %calendar_ = getelementptr inbounds nuw %"class.QuantLib::TermStructure", ptr %this1, i32 0, i32 3
  call void @_ZN8QuantLib8CalendarC2EOS0_(ptr noundef nonnull align 8 dereferenceable(16) %calendar_, ptr noundef nonnull align 8 dereferenceable(16) %cal) #9
  %referenceDate_ = getelementptr inbounds nuw %"class.QuantLib::TermStructure", ptr %this1, i32 0, i32 4
  %5 = load ptr, ptr %referenceDate.addr, align 8, !tbaa !3
  call void @llvm.memcpy.p0.p0.i64(ptr align 8 %referenceDate_, ptr align 8 %5, i64 8, i1 false), !tbaa.struct !26
  %settlementDays_ = getelementptr inbounds nuw %"class.QuantLib::TermStructure", ptr %this1, i32 0, i32 5
  call void @llvm.lifetime.start.p0(i64 1, ptr %ref.tmp) #9
  %call = invoke noundef i32 @_ZNK8QuantLib4NullIjEcvjEv(ptr noundef nonnull align 1 dereferenceable(1) %ref.tmp)
          to label %invoke.cont unwind label %lpad

invoke.cont:                                      ; preds = %entry
  call void @llvm.lifetime.end.p0(i64 1, ptr %ref.tmp) #9
  store i32 %call, ptr %settlementDays_, align 8, !tbaa !24
  %dayCounter_ = getelementptr inbounds nuw %"class.QuantLib::TermStructure", ptr %this1, i32 0, i32 6
  call void @_ZN8QuantLib10DayCounterC2EOS0_(ptr noundef nonnull align 8 dereferenceable(16) %dayCounter_, ptr noundef nonnull align 8 dereferenceable(16) %dc) #9
  ret void

lpad:                                             ; preds = %entry
  %6 = landingpad { ptr, i32 }
          cleanup
  %7 = extractvalue { ptr, i32 } %6, 0
  store ptr %7, ptr %exn.slot, align 8
  %8 = extractvalue { ptr, i32 } %6, 1
  store i32 %8, ptr %ehselector.slot, align 4
  call void @llvm.lifetime.end.p0(i64 1, ptr %ref.tmp) #9
  call void @_ZN8QuantLib8CalendarD2Ev(ptr noundef nonnull align 8 dereferenceable(16) %calendar_) #9
  call void @_ZN8QuantLib12ExtrapolatorD2Ev(ptr noundef nonnull align 8 dereferenceable(9) %this1) #9
  br label %eh.resume

eh.resume:                                        ; preds = %lpad
  %exn = load ptr, ptr %exn.slot, align 8
  %sel = load i32, ptr %ehselector.slot, align 4
  %lpad.val = insertvalue { ptr, i32 } poison, ptr %exn, 0
  %lpad.val7 = insertvalue { ptr, i32 } %lpad.val, i32 %sel, 1
  resume { ptr, i32 } %lpad.val7
}